; Function Attrs: nounwind uwtable
define zeroext i8 @l_Lean_Linter_initFn____x40_Lean_Linter_UnusedVariables___hyg_4961____lambda__2(ptr readnone captures(none) %0, ptr noundef %1, ptr noundef %2) local_unnamed_addr #1 {
  %4 = load ptr, ptr @l_Lean_Linter_linter_unusedVariables_patternVars, align 8, !tbaa !4
  %5 = getelementptr inbounds nuw i8, ptr %4, i64 8
  %6 = load ptr, ptr %5, align 8, !tbaa !4
  %7 = ptrtoint ptr %6 to i64
  %8 = and i64 %7, 1
  %.not.i7 = icmp eq i64 %8, 0
  br i1 %.not.i7, label %9, label %lean_inc.exit.i

9:                                                ; preds = %3
  %.val.i.i = load i32, ptr %6, align 4, !tbaa !8
  %10 = icmp sgt i32 %.val.i.i, 0
  br i1 %10, label %11, label %13, !prof !11

11:                                               ; preds = %9
  %12 = add nuw i32 %.val.i.i, 1
  store i32 %12, ptr %6, align 4, !tbaa !8
  br label %lean_inc.exit.i

13:                                               ; preds = %9
  %.not.i8.i = icmp eq i32 %.val.i.i, 0
  br i1 %.not.i8.i, label %lean_inc.exit.i, label %14

14:                                               ; preds = %13
  tail call void @lean_inc_ref_cold(ptr noundef nonnull %6) #7
  br label %lean_inc.exit.i

lean_inc.exit.i:                                  ; preds = %14, %13, %11, %3
  %15 = load ptr, ptr @l_Lean_Linter_getLinterUnusedVariables___closed__1, align 8, !tbaa !4
  %16 = tail call zeroext i8 @l_Lean_Linter_getLinterValue(ptr noundef %15, ptr noundef %2) #7
  %17 = tail call zeroext i8 @l_Lean_Linter_LinterOptions_get___at_Lean_Linter_getLinterAll___spec__1(ptr noundef %2, ptr noundef %6, i8 noundef zeroext %16) #7
  br i1 %.not.i7, label %18, label %l_Lean_Linter_getLinterUnusedVariablesPatternVars.exit

18:                                               ; preds = %lean_inc.exit.i
  %19 = load i32, ptr %6, align 4, !tbaa !8
  %20 = icmp sgt i32 %19, 1
  br i1 %20, label %21, label %23, !prof !11

21:                                               ; preds = %18
  %22 = add nsw i32 %19, -1
  store i32 %22, ptr %6, align 4, !tbaa !8
  br label %l_Lean_Linter_getLinterUnusedVariablesPatternVars.exit

23:                                               ; preds = %18
  %.not.i.i = icmp eq i32 %19, 0
  br i1 %.not.i.i, label %l_Lean_Linter_getLinterUnusedVariablesPatternVars.exit, label %24

24:                                               ; preds = %23
  tail call void @lean_dec_ref_cold(ptr noundef nonnull %6) #7
  br label %l_Lean_Linter_getLinterUnusedVariablesPatternVars.exit

l_Lean_Linter_getLinterUnusedVariablesPatternVars.exit: ; preds = %lean_inc.exit.i, %21, %23, %24
  %25 = icmp eq i8 %17, 0
  br i1 %25, label %26, label %29

26:                                               ; preds = %l_Lean_Linter_getLinterUnusedVariablesPatternVars.exit
  %27 = load ptr, ptr @l_Lean_Linter_initFn____x40_Lean_Linter_UnusedVariables___hyg_4961____lambda__2___closed__1, align 8, !tbaa !4
  %28 = tail call zeroext i8 @l_List_any___rarg(ptr noundef %1, ptr noundef %27) #7
  br label %lean_dec.exit

29:                                               ; preds = %l_Lean_Linter_getLinterUnusedVariablesPatternVars.exit
  %30 = ptrtoint ptr %1 to i64
  %31 = and i64 %30, 1
  %.not = icmp eq i64 %31, 0
  br i1 %.not, label %32, label %lean_dec.exit

32:                                               ; preds = %29
  %33 = load i32, ptr %1, align 4, !tbaa !8
  %34 = icmp sgt i32 %33, 1
  br i1 %34, label %35, label %37, !prof !11

35:                                               ; preds = %32
  %36 = add nsw i32 %33, -1
  store i32 %36, ptr %1, align 4, !tbaa !8
  br label %lean_dec.exit

37:                                               ; preds = %32
  %.not.i = icmp eq i32 %33, 0
  br i1 %.not.i, label %lean_dec.exit, label %38

38:                                               ; preds = %37
  tail call void @lean_dec_ref_cold(ptr noundef nonnull %1) #7
  br label %lean_dec.exit

lean_dec.exit:                                    ; preds = %29, %35, %37, %38, %26
  %.0 = phi i8 [ %28, %26 ], [ 0, %38 ], [ 0, %37 ], [ 0, %35 ], [ 0, %29 ]
  ret i8 %.0
}